target datalayout = "e-m:e-p270:32:32-p271:32:32-p272:64:64-i64:64-i128:128-f80:128-n8:16:32:64-S128"
target triple = "x86_64-pc-linux-gnu"

%"class.cv::dnn_objdetect::InferBbox" = type { %"class.std::vector", %"class.cv::Mat", %"class.cv::Mat", %"class.cv::Mat", i32, i32, i32, i32, %"class.std::vector.0", %"class.std::vector.5", %"class.std::vector.5", %"class.std::vector.10", i32, i32, i64, double, double, i64, double }
%"class.std::vector" = type { %"struct.std::_Vector_base" }
%"struct.std::_Vector_base" = type { %"struct.std::_Vector_base<cv::dnn_objdetect::object, std::allocator<cv::dnn_objdetect::object>>::_Vector_impl" }
%"struct.std::_Vector_base<cv::dnn_objdetect::object, std::allocator<cv::dnn_objdetect::object>>::_Vector_impl" = type { %"struct.std::_Vector_base<cv::dnn_objdetect::object, std::allocator<cv::dnn_objdetect::object>>::_Vector_impl_data" }
%"struct.std::_Vector_base<cv::dnn_objdetect::object, std::allocator<cv::dnn_objdetect::object>>::_Vector_impl_data" = type { ptr, ptr, ptr }
%"class.cv::Mat" = type { i32, i32, i32, i32, ptr, ptr, ptr, ptr, ptr, ptr, %"struct.cv::MatSize", %"struct.cv::MatStep" }
%"struct.cv::MatSize" = type { ptr }
%"struct.cv::MatStep" = type { ptr, [2 x i64] }
%"class.std::vector.0" = type { %"struct.std::_Vector_base.1" }
%"struct.std::_Vector_base.1" = type { %"struct.std::_Vector_base<std::vector<double>, std::allocator<std::vector<double>>>::_Vector_impl" }
%"struct.std::_Vector_base<std::vector<double>, std::allocator<std::vector<double>>>::_Vector_impl" = type { %"struct.std::_Vector_base<std::vector<double>, std::allocator<std::vector<double>>>::_Vector_impl_data" }
%"struct.std::_Vector_base<std::vector<double>, std::allocator<std::vector<double>>>::_Vector_impl_data" = type { ptr, ptr, ptr }
%"class.std::vector.5" = type { %"struct.std::_Vector_base.6" }
%"struct.std::_Vector_base.6" = type { %"struct.std::_Vector_base<std::pair<double, double>, std::allocator<std::pair<double, double>>>::_Vector_impl" }
%"struct.std::_Vector_base<std::pair<double, double>, std::allocator<std::pair<double, double>>>::_Vector_impl" = type { %"struct.std::_Vector_base<std::pair<double, double>, std::allocator<std::pair<double, double>>>::_Vector_impl_data" }
%"struct.std::_Vector_base<std::pair<double, double>, std::allocator<std::pair<double, double>>>::_Vector_impl_data" = type { ptr, ptr, ptr }
%"class.std::vector.10" = type { %"struct.std::_Vector_base.11" }
%"struct.std::_Vector_base.11" = type { %"struct.std::_Vector_base<std::__cxx11::basic_string<char>, std::allocator<std::__cxx11::basic_string<char>>>::_Vector_impl" }
%"struct.std::_Vector_base<std::__cxx11::basic_string<char>, std::allocator<std::__cxx11::basic_string<char>>>::_Vector_impl" = type { %"struct.std::_Vector_base<std::__cxx11::basic_string<char>, std::allocator<std::__cxx11::basic_string<char>>>::_Vector_impl_data" }
%"struct.std::_Vector_base<std::__cxx11::basic_string<char>, std::allocator<std::__cxx11::basic_string<char>>>::_Vector_impl_data" = type { ptr, ptr, ptr }
%"class.std::vector.15" = type { %"struct.std::_Vector_base.16" }
%"struct.std::_Vector_base.16" = type { %"struct.std::_Vector_base<double, std::allocator<double>>::_Vector_impl" }
%"struct.std::_Vector_base<double, std::allocator<double>>::_Vector_impl" = type { %"struct.std::_Vector_base<double, std::allocator<double>>::_Vector_impl_data" }
%"struct.std::_Vector_base<double, std::allocator<double>>::_Vector_impl_data" = type { ptr, ptr, ptr }

; Function Attrs: inlinehint mustprogress nounwind uwtable
define linkonce_odr noundef nonnull align 8 dereferenceable(8) ptr @_ZSt3minIdERKT_S2_S2_(ptr noundef nonnull align 8 dereferenceable(8) %0, ptr noundef nonnull align 8 dereferenceable(8) %1) #10 comdat {
  %3 = alloca ptr, align 8
  %4 = alloca ptr, align 8
  %5 = alloca ptr, align 8
  store ptr %0, ptr %4, align 8, !tbaa !78
  store ptr %1, ptr %5, align 8, !tbaa !78
  %6 = load ptr, ptr %5, align 8, !tbaa !78
  %7 = load double, ptr %6, align 8, !tbaa !56
  %8 = load ptr, ptr %4, align 8, !tbaa !78
  %9 = load double, ptr %8, align 8, !tbaa !56
  %10 = fcmp olt double %7, %9
  br i1 %10, label %11, label %13

11:                                               ; preds = %2
  %12 = load ptr, ptr %5, align 8, !tbaa !78
  store ptr %12, ptr %3, align 8
  br label %15

13:                                               ; preds = %2
  %14 = load ptr, ptr %4, align 8, !tbaa !78
  store ptr %14, ptr %3, align 8
  br label %15

15:                                               ; preds = %13, %11
  %16 = load ptr, ptr %3, align 8
  ret ptr %16
}

; Function Attrs: inlinehint mustprogress nounwind uwtable
define linkonce_odr noundef nonnull align 8 dereferenceable(8) ptr @_ZSt3maxIdERKT_S2_S2_(ptr noundef nonnull align 8 dereferenceable(8) %0, ptr noundef nonnull align 8 dereferenceable(8) %1) #10 comdat {
  %3 = alloca ptr, align 8
  %4 = alloca ptr, align 8
  %5 = alloca ptr, align 8
  store ptr %0, ptr %4, align 8, !tbaa !78
  store ptr %1, ptr %5, align 8, !tbaa !78
  %6 = load ptr, ptr %4, align 8, !tbaa !78
  %7 = load double, ptr %6, align 8, !tbaa !56
  %8 = load ptr, ptr %5, align 8, !tbaa !78
  %9 = load double, ptr %8, align 8, !tbaa !56
  %10 = fcmp olt double %7, %9
  br i1 %10, label %11, label %13

11:                                               ; preds = %2
  %12 = load ptr, ptr %5, align 8, !tbaa !78
  store ptr %12, ptr %3, align 8
  br label %15

13:                                               ; preds = %2
  %14 = load ptr, ptr %4, align 8, !tbaa !78
  store ptr %14, ptr %3, align 8
  br label %15

15:                                               ; preds = %13, %11
  %16 = load ptr, ptr %3, align 8
  ret ptr %16
}

; Function Attrs: mustprogress nounwind uwtable
define linkonce_odr hidden noundef nonnull align 8 dereferenceable(24) ptr @_ZNSt6vectorIS_IdSaIdEESaIS1_EEixEm(ptr noundef nonnull align 8 dereferenceable(24) %0, i64 noundef %1) #5 comdat align 2 {
  %3 = alloca ptr, align 8
  %4 = alloca i64, align 8
  store ptr %0, ptr %3, align 8, !tbaa !66
  store i64 %1, ptr %4, align 8, !tbaa !52
  %5 = load ptr, ptr %3, align 8
  %6 = getelementptr inbounds nuw %"struct.std::_Vector_base.1", ptr %5, i32 0, i32 0
  %7 = getelementptr inbounds nuw %"struct.std::_Vector_base<std::vector<double>, std::allocator<std::vector<double>>>::_Vector_impl_data", ptr %6, i32 0, i32 0
  %8 = load ptr, ptr %7, align 8, !tbaa !72
  %9 = load i64, ptr %4, align 8, !tbaa !52
  %10 = getelementptr inbounds nuw %"class.std::vector.15", ptr %8, i64 %9
  ret ptr %10
}

; Function Attrs: mustprogress nounwind uwtable
define linkonce_odr hidden noundef i64 @_ZNKSt6vectorIS_IdSaIdEESaIS1_EE4sizeEv(ptr noundef nonnull align 8 dereferenceable(24) %0) #5 comdat align 2 {
  %2 = alloca ptr, align 8
  store ptr %0, ptr %2, align 8, !tbaa !66
  %3 = load ptr, ptr %2, align 8
  %4 = getelementptr inbounds nuw %"struct.std::_Vector_base.1", ptr %3, i32 0, i32 0
  %5 = getelementptr inbounds nuw %"struct.std::_Vector_base<std::vector<double>, std::allocator<std::vector<double>>>::_Vector_impl_data", ptr %4, i32 0, i32 1
  %6 = load ptr, ptr %5, align 8, !tbaa !88
  %7 = getelementptr inbounds nuw %"struct.std::_Vector_base.1", ptr %3, i32 0, i32 0
  %8 = getelementptr inbounds nuw %"struct.std::_Vector_base<std::vector<double>, std::allocator<std::vector<double>>>::_Vector_impl_data", ptr %7, i32 0, i32 0
  %9 = load ptr, ptr %8, align 8, !tbaa !72
  %10 = ptrtoint ptr %6 to i64
  %11 = ptrtoint ptr %9 to i64
  %12 = sub i64 %10, %11
  %13 = sdiv exact i64 %12, 24
  ret i64 %13
}

; Function Attrs: mustprogress nounwind uwtable
define linkonce_odr hidden noundef nonnull align 8 dereferenceable(8) ptr @_ZNSt6vectorIdSaIdEEixEm(ptr noundef nonnull align 8 dereferenceable(24) %0, i64 noundef %1) #5 comdat align 2 {
  %3 = alloca ptr, align 8
  %4 = alloca i64, align 8
  store ptr %0, ptr %3, align 8, !tbaa !73
  store i64 %1, ptr %4, align 8, !tbaa !52
  %5 = load ptr, ptr %3, align 8
  %6 = getelementptr inbounds nuw %"struct.std::_Vector_base.16", ptr %5, i32 0, i32 0
  %7 = getelementptr inbounds nuw %"struct.std::_Vector_base<double, std::allocator<double>>::_Vector_impl_data", ptr %6, i32 0, i32 0
  %8 = load ptr, ptr %7, align 8, !tbaa !74
  %9 = load i64, ptr %4, align 8, !tbaa !52
  %10 = getelementptr inbounds nuw double, ptr %8, i64 %9
  ret ptr %10
}

; Function Attrs: mustprogress uwtable
define void @_ZN2cv13dnn_objdetect9InferBbox23intersection_over_unionEPSt6vectorIS2_IdSaIdEESaIS4_EEPS4_S8_(ptr noundef nonnull align 8 dereferenceable(472) %0, ptr noundef %1, ptr noundef %2, ptr noundef %3) #4 align 2 {
  %5 = alloca ptr, align 8
  %6 = alloca ptr, align 8
  %7 = alloca ptr, align 8
  %8 = alloca ptr, align 8
  %9 = alloca double, align 8
  %10 = alloca double, align 8
  %11 = alloca double, align 8
  %12 = alloca double, align 8
  %13 = alloca double, align 8
  %14 = alloca double, align 8
  %15 = alloca i64, align 8
  %16 = alloca double, align 8
  %17 = alloca double, align 8
  %18 = alloca double, align 8
  %19 = alloca double, align 8
  %20 = alloca double, align 8
  %21 = alloca double, align 8
  %22 = alloca double, align 8
  %23 = alloca double, align 8
  %24 = alloca double, align 8
  %25 = alloca double, align 8
  %26 = alloca double, align 8
  %27 = alloca double, align 8
  %28 = alloca double, align 8
  %29 = alloca double, align 8
  store ptr %0, ptr %5, align 8, !tbaa !3
  store ptr %1, ptr %6, align 8, !tbaa !66
  store ptr %2, ptr %7, align 8, !tbaa !73
  store ptr %3, ptr %8, align 8, !tbaa !73
  %30 = load ptr, ptr %5, align 8
  call void @llvm.lifetime.start.p0(i64 8, ptr %9) #3
  %31 = load ptr, ptr %7, align 8, !tbaa !73
  %32 = call noundef nonnull align 8 dereferenceable(8) ptr @_ZNSt6vectorIdSaIdEEixEm(ptr noundef nonnull align 8 dereferenceable(24) %31, i64 noundef 0) #3
  %33 = load double, ptr %32, align 8, !tbaa !56
  store double %33, ptr %9, align 8, !tbaa !56
  call void @llvm.lifetime.start.p0(i64 8, ptr %10) #3
  %34 = load ptr, ptr %7, align 8, !tbaa !73
  %35 = call noundef nonnull align 8 dereferenceable(8) ptr @_ZNSt6vectorIdSaIdEEixEm(ptr noundef nonnull align 8 dereferenceable(24) %34, i64 noundef 1) #3
  %36 = load double, ptr %35, align 8, !tbaa !56
  store double %36, ptr %10, align 8, !tbaa !56
  call void @llvm.lifetime.start.p0(i64 8, ptr %11) #3
  %37 = load ptr, ptr %7, align 8, !tbaa !73
  %38 = call noundef nonnull align 8 dereferenceable(8) ptr @_ZNSt6vectorIdSaIdEEixEm(ptr noundef nonnull align 8 dereferenceable(24) %37, i64 noundef 2) #3
  %39 = load double, ptr %38, align 8, !tbaa !56
  store double %39, ptr %11, align 8, !tbaa !56
  call void @llvm.lifetime.start.p0(i64 8, ptr %12) #3
  %40 = load ptr, ptr %7, align 8, !tbaa !73
  %41 = call noundef nonnull align 8 dereferenceable(8) ptr @_ZNSt6vectorIdSaIdEEixEm(ptr noundef nonnull align 8 dereferenceable(24) %40, i64 noundef 3) #3
  %42 = load double, ptr %41, align 8, !tbaa !56
  store double %42, ptr %12, align 8, !tbaa !56
  call void @llvm.lifetime.start.p0(i64 8, ptr %13) #3
  %43 = load double, ptr %11, align 8, !tbaa !56
  %44 = load double, ptr %9, align 8, !tbaa !56
  %45 = fsub double %43, %44
  store double %45, ptr %13, align 8, !tbaa !56
  call void @llvm.lifetime.start.p0(i64 8, ptr %14) #3
  %46 = load double, ptr %12, align 8, !tbaa !56
  %47 = load double, ptr %10, align 8, !tbaa !56
  %48 = fsub double %46, %47
  store double %48, ptr %14, align 8, !tbaa !56
  call void @llvm.lifetime.start.p0(i64 8, ptr %15) #3
  store i64 0, ptr %15, align 8, !tbaa !52
  br label %49

49:                                               ; preds = %132, %4
  %50 = load i64, ptr %15, align 8, !tbaa !52
  %51 = load ptr, ptr %6, align 8, !tbaa !66
  %52 = call noundef i64 @_ZNKSt6vectorIS_IdSaIdEESaIS1_EE4sizeEv(ptr noundef nonnull align 8 dereferenceable(24) %51) #3
  %53 = icmp ult i64 %50, %52
  br i1 %53, label %55, label %54

54:                                               ; preds = %49
  call void @llvm.lifetime.end.p0(i64 8, ptr %15) #3
  br label %135

55:                                               ; preds = %49
  call void @llvm.lifetime.start.p0(i64 8, ptr %16) #3
  %56 = load ptr, ptr %6, align 8, !tbaa !66
  %57 = load i64, ptr %15, align 8, !tbaa !52
  %58 = call noundef nonnull align 8 dereferenceable(24) ptr @_ZNSt6vectorIS_IdSaIdEESaIS1_EEixEm(ptr noundef nonnull align 8 dereferenceable(24) %56, i64 noundef %57) #3
  %59 = call noundef nonnull align 8 dereferenceable(8) ptr @_ZNSt6vectorIdSaIdEEixEm(ptr noundef nonnull align 8 dereferenceable(24) %58, i64 noundef 0) #3
  %60 = call noundef nonnull align 8 dereferenceable(8) ptr @_ZSt3maxIdERKT_S2_S2_(ptr noundef nonnull align 8 dereferenceable(8) %59, ptr noundef nonnull align 8 dereferenceable(8) %9)
  %61 = load double, ptr %60, align 8, !tbaa !56
  store double %61, ptr %16, align 8, !tbaa !56
  call void @llvm.lifetime.start.p0(i64 8, ptr %17) #3
  %62 = load ptr, ptr %6, align 8, !tbaa !66
  %63 = load i64, ptr %15, align 8, !tbaa !52
  %64 = call noundef nonnull align 8 dereferenceable(24) ptr @_ZNSt6vectorIS_IdSaIdEESaIS1_EEixEm(ptr noundef nonnull align 8 dereferenceable(24) %62, i64 noundef %63) #3
  %65 = call noundef nonnull align 8 dereferenceable(8) ptr @_ZNSt6vectorIdSaIdEEixEm(ptr noundef nonnull align 8 dereferenceable(24) %64, i64 noundef 1) #3
  %66 = call noundef nonnull align 8 dereferenceable(8) ptr @_ZSt3maxIdERKT_S2_S2_(ptr noundef nonnull align 8 dereferenceable(8) %65, ptr noundef nonnull align 8 dereferenceable(8) %10)
  %67 = load double, ptr %66, align 8, !tbaa !56
  store double %67, ptr %17, align 8, !tbaa !56
  call void @llvm.lifetime.start.p0(i64 8, ptr %18) #3
  %68 = load ptr, ptr %6, align 8, !tbaa !66
  %69 = load i64, ptr %15, align 8, !tbaa !52
  %70 = call noundef nonnull align 8 dereferenceable(24) ptr @_ZNSt6vectorIS_IdSaIdEESaIS1_EEixEm(ptr noundef nonnull align 8 dereferenceable(24) %68, i64 noundef %69) #3
  %71 = call noundef nonnull align 8 dereferenceable(8) ptr @_ZNSt6vectorIdSaIdEEixEm(ptr noundef nonnull align 8 dereferenceable(24) %70, i64 noundef 2) #3
  %72 = call noundef nonnull align 8 dereferenceable(8) ptr @_ZSt3minIdERKT_S2_S2_(ptr noundef nonnull align 8 dereferenceable(8) %71, ptr noundef nonnull align 8 dereferenceable(8) %11)
  %73 = load double, ptr %72, align 8, !tbaa !56
  store double %73, ptr %18, align 8, !tbaa !56
  call void @llvm.lifetime.start.p0(i64 8, ptr %19) #3
  %74 = load ptr, ptr %6, align 8, !tbaa !66
  %75 = load i64, ptr %15, align 8, !tbaa !52
  %76 = call noundef nonnull align 8 dereferenceable(24) ptr @_ZNSt6vectorIS_IdSaIdEESaIS1_EEixEm(ptr noundef nonnull align 8 dereferenceable(24) %74, i64 noundef %75) #3
  %77 = call noundef nonnull align 8 dereferenceable(8) ptr @_ZNSt6vectorIdSaIdEEixEm(ptr noundef nonnull align 8 dereferenceable(24) %76, i64 noundef 3) #3
  %78 = call noundef nonnull align 8 dereferenceable(8) ptr @_ZSt3minIdERKT_S2_S2_(ptr noundef nonnull align 8 dereferenceable(8) %77, ptr noundef nonnull align 8 dereferenceable(8) %12)
  %79 = load double, ptr %78, align 8, !tbaa !56
  store double %79, ptr %19, align 8, !tbaa !56
  call void @llvm.lifetime.start.p0(i64 8, ptr %20) #3
  call void @llvm.lifetime.start.p0(i64 8, ptr %21) #3
  store double 0.000000e+00, ptr %21, align 8, !tbaa !56
  call void @llvm.lifetime.start.p0(i64 8, ptr %22) #3
  %80 = load double, ptr %18, align 8, !tbaa !56
  %81 = load double, ptr %16, align 8, !tbaa !56
  %82 = fsub double %80, %81
  store double %82, ptr %22, align 8, !tbaa !56
  %83 = call noundef nonnull align 8 dereferenceable(8) ptr @_ZSt3maxIdERKT_S2_S2_(ptr noundef nonnull align 8 dereferenceable(8) %21, ptr noundef nonnull align 8 dereferenceable(8) %22)
  %84 = load double, ptr %83, align 8, !tbaa !56
  call void @llvm.lifetime.end.p0(i64 8, ptr %22) #3
  call void @llvm.lifetime.end.p0(i64 8, ptr %21) #3
  store double %84, ptr %20, align 8, !tbaa !56
  call void @llvm.lifetime.start.p0(i64 8, ptr %23) #3
  call void @llvm.lifetime.start.p0(i64 8, ptr %24) #3
  store double 0.000000e+00, ptr %24, align 8, !tbaa !56
  call void @llvm.lifetime.start.p0(i64 8, ptr %25) #3
  %85 = load double, ptr %19, align 8, !tbaa !56
  %86 = load double, ptr %17, align 8, !tbaa !56
  %87 = fsub double %85, %86
  store double %87, ptr %25, align 8, !tbaa !56
  %88 = call noundef nonnull align 8 dereferenceable(8) ptr @_ZSt3maxIdERKT_S2_S2_(ptr noundef nonnull align 8 dereferenceable(8) %24, ptr noundef nonnull align 8 dereferenceable(8) %25)
  %89 = load double, ptr %88, align 8, !tbaa !56
  call void @llvm.lifetime.end.p0(i64 8, ptr %25) #3
  call void @llvm.lifetime.end.p0(i64 8, ptr %24) #3
  store double %89, ptr %23, align 8, !tbaa !56
  call void @llvm.lifetime.start.p0(i64 8, ptr %26) #3
  %90 = load ptr, ptr %6, align 8, !tbaa !66
  %91 = load i64, ptr %15, align 8, !tbaa !52
  %92 = call noundef nonnull align 8 dereferenceable(24) ptr @_ZNSt6vectorIS_IdSaIdEESaIS1_EEixEm(ptr noundef nonnull align 8 dereferenceable(24) %90, i64 noundef %91) #3
  %93 = call noundef nonnull align 8 dereferenceable(8) ptr @_ZNSt6vectorIdSaIdEEixEm(ptr noundef nonnull align 8 dereferenceable(24) %92, i64 noundef 2) #3
  %94 = load double, ptr %93, align 8, !tbaa !56
  %95 = load ptr, ptr %6, align 8, !tbaa !66
  %96 = load i64, ptr %15, align 8, !tbaa !52
  %97 = call noundef nonnull align 8 dereferenceable(24) ptr @_ZNSt6vectorIS_IdSaIdEESaIS1_EEixEm(ptr noundef nonnull align 8 dereferenceable(24) %95, i64 noundef %96) #3
  %98 = call noundef nonnull align 8 dereferenceable(8) ptr @_ZNSt6vectorIdSaIdEEixEm(ptr noundef nonnull align 8 dereferenceable(24) %97, i64 noundef 0) #3
  %99 = load double, ptr %98, align 8, !tbaa !56
  %100 = fsub double %94, %99
  store double %100, ptr %26, align 8, !tbaa !56
  call void @llvm.lifetime.start.p0(i64 8, ptr %27) #3
  %101 = load ptr, ptr %6, align 8, !tbaa !66
  %102 = load i64, ptr %15, align 8, !tbaa !52
  %103 = call noundef nonnull align 8 dereferenceable(24) ptr @_ZNSt6vectorIS_IdSaIdEESaIS1_EEixEm(ptr noundef nonnull align 8 dereferenceable(24) %101, i64 noundef %102) #3
  %104 = call noundef nonnull align 8 dereferenceable(8) ptr @_ZNSt6vectorIdSaIdEEixEm(ptr noundef nonnull align 8 dereferenceable(24) %103, i64 noundef 3) #3
  %105 = load double, ptr %104, align 8, !tbaa !56
  %106 = load ptr, ptr %6, align 8, !tbaa !66
  %107 = load i64, ptr %15, align 8, !tbaa !52
  %108 = call noundef nonnull align 8 dereferenceable(24) ptr @_ZNSt6vectorIS_IdSaIdEESaIS1_EEixEm(ptr noundef nonnull align 8 dereferenceable(24) %106, i64 noundef %107) #3
  %109 = call noundef nonnull align 8 dereferenceable(8) ptr @_ZNSt6vectorIdSaIdEEixEm(ptr noundef nonnull align 8 dereferenceable(24) %108, i64 noundef 1) #3
  %110 = load double, ptr %109, align 8, !tbaa !56
  %111 = fsub double %105, %110
  store double %111, ptr %27, align 8, !tbaa !56
  call void @llvm.lifetime.start.p0(i64 8, ptr %28) #3
  %112 = load double, ptr %20, align 8, !tbaa !56
  %113 = load double, ptr %23, align 8, !tbaa !56
  %114 = fmul double %112, %113
  store double %114, ptr %28, align 8, !tbaa !56
  call void @llvm.lifetime.start.p0(i64 8, ptr %29) #3
  %115 = load double, ptr %27, align 8, !tbaa !56
  %116 = load double, ptr %26, align 8, !tbaa !56
  %117 = load double, ptr %14, align 8, !tbaa !56
  %118 = load double, ptr %13, align 8, !tbaa !56
  %119 = fmul double %117, %118
  %120 = call double @llvm.fmuladd.f64(double %115, double %116, double %119)
  %121 = load double, ptr %28, align 8, !tbaa !56
  %122 = fsub double %120, %121
  store double %122, ptr %29, align 8, !tbaa !56
  %123 = load double, ptr %28, align 8, !tbaa !56
  %124 = load double, ptr %29, align 8, !tbaa !56
  %125 = getelementptr inbounds nuw %"class.cv::dnn_objdetect::InferBbox", ptr %30, i32 0, i32 18
  %126 = load double, ptr %125, align 8, !tbaa !51
  %127 = fadd double %124, %126
  %128 = fdiv double %123, %127
  %129 = load ptr, ptr %8, align 8, !tbaa !73
  %130 = load i64, ptr %15, align 8, !tbaa !52
  %131 = call noundef nonnull align 8 dereferenceable(8) ptr @_ZNSt6vectorIdSaIdEEixEm(ptr noundef nonnull align 8 dereferenceable(24) %129, i64 noundef %130) #3
  store double %128, ptr %131, align 8, !tbaa !56
  call void @llvm.lifetime.end.p0(i64 8, ptr %29) #3
  call void @llvm.lifetime.end.p0(i64 8, ptr %28) #3
  call void @llvm.lifetime.end.p0(i64 8, ptr %27) #3
  call void @llvm.lifetime.end.p0(i64 8, ptr %26) #3
  call void @llvm.lifetime.end.p0(i64 8, ptr %23) #3
  call void @llvm.lifetime.end.p0(i64 8, ptr %20) #3
  call void @llvm.lifetime.end.p0(i64 8, ptr %19) #3
  call void @llvm.lifetime.end.p0(i64 8, ptr %18) #3
  call void @llvm.lifetime.end.p0(i64 8, ptr %17) #3
  call void @llvm.lifetime.end.p0(i64 8, ptr %16) #3
  br label %132

132:                                              ; preds = %55
  %133 = load i64, ptr %15, align 8, !tbaa !52
  %134 = add i64 %133, 1
  store i64 %134, ptr %15, align 8, !tbaa !52
  br label %49, !llvm.loop !193

135:                                              ; preds = %54
  call void @llvm.lifetime.end.p0(i64 8, ptr %14) #3
  call void @llvm.lifetime.end.p0(i64 8, ptr %13) #3
  call void @llvm.lifetime.end.p0(i64 8, ptr %12) #3
  call void @llvm.lifetime.end.p0(i64 8, ptr %11) #3
  call void @llvm.lifetime.end.p0(i64 8, ptr %10) #3
  call void @llvm.lifetime.end.p0(i64 8, ptr %9) #3
  ret void
}