; Function Attrs: mustprogress nofree norecurse nosync nounwind memory(readwrite, inaccessiblemem: none) uwtable
define void @_ZN2cv13dnn_objdetect9InferBbox23intersection_over_unionEPSt6vectorIS2_IdSaIdEESaIS4_EEPS4_S8_(ptr noundef nonnull readonly align 8 captures(none) dereferenceable(472) %0, ptr noundef readonly captures(none) %1, ptr noundef readonly captures(none) %2, ptr noundef readonly captures(none) %3) local_unnamed_addr #8 align 2 {
  %5 = load ptr, ptr %2, align 8, !tbaa !50
  %6 = load double, ptr %5, align 8, !tbaa !58
  %7 = getelementptr inbounds nuw i8, ptr %5, i64 8
  %8 = load double, ptr %7, align 8, !tbaa !58
  %9 = getelementptr inbounds nuw i8, ptr %5, i64 16
  %10 = load double, ptr %9, align 8, !tbaa !58
  %11 = getelementptr inbounds nuw i8, ptr %5, i64 24
  %12 = load double, ptr %11, align 8, !tbaa !58
  %13 = getelementptr inbounds nuw i8, ptr %1, i64 8
  %14 = load ptr, ptr %13, align 8, !tbaa !48
  %15 = load ptr, ptr %1, align 8, !tbaa !49
  %.not = icmp eq ptr %14, %15
  br i1 %.not, label %._crit_edge, label %.lr.ph

.lr.ph:                                           ; preds = %4
  %16 = ptrtoint ptr %14 to i64
  %17 = ptrtoint ptr %15 to i64
  %18 = sub i64 %16, %17
  %19 = sdiv exact i64 %18, 24
  %20 = fsub double %12, %8
  %21 = fsub double %10, %6
  %22 = fmul double %21, %20
  %23 = getelementptr inbounds nuw i8, ptr %0, i64 464
  %24 = load ptr, ptr %3, align 8, !tbaa !50
  %umax = tail call i64 @llvm.umax.i64(i64 %19, i64 1)
  br label %25

._crit_edge:                                      ; preds = %25, %4
  ret void

25:                                               ; preds = %.lr.ph, %25
  %.066 = phi i64 [ 0, %.lr.ph ], [ %52, %25 ]
  %26 = getelementptr inbounds nuw %"class.std::vector.15", ptr %15, i64 %.066
  %27 = load ptr, ptr %26, align 8, !tbaa !50
  %28 = load double, ptr %27, align 8, !tbaa !58
  %29 = fcmp olt double %28, %6
  %.sroa.speculated64 = select i1 %29, double %6, double %28
  %30 = getelementptr inbounds nuw i8, ptr %27, i64 8
  %31 = load double, ptr %30, align 8, !tbaa !58
  %32 = fcmp olt double %31, %8
  %.sroa.speculated59 = select i1 %32, double %8, double %31
  %33 = getelementptr inbounds nuw i8, ptr %27, i64 16
  %34 = load double, ptr %33, align 8, !tbaa !58
  %35 = fcmp olt double %10, %34
  %.sroa.speculated54 = select i1 %35, double %10, double %34
  %36 = getelementptr inbounds nuw i8, ptr %27, i64 24
  %37 = load double, ptr %36, align 8, !tbaa !58
  %38 = fcmp olt double %12, %37
  %.sroa.speculated49 = select i1 %38, double %12, double %37
  %39 = fsub double %.sroa.speculated54, %.sroa.speculated64
  %40 = fcmp ogt double %39, 0.000000e+00
  %.sroa.speculated44 = select i1 %40, double %39, double 0.000000e+00
  %41 = fsub double %.sroa.speculated49, %.sroa.speculated59
  %42 = fcmp ogt double %41, 0.000000e+00
  %.sroa.speculated = select i1 %42, double %41, double 0.000000e+00
  %43 = fsub double %34, %28
  %44 = fsub double %37, %31
  %45 = fmul double %.sroa.speculated44, %.sroa.speculated
  %46 = tail call double @llvm.fmuladd.f64(double %44, double %43, double %22)
  %47 = fsub double %46, %45
  %48 = load double, ptr %23, align 8, !tbaa !47
  %49 = fadd double %48, %47
  %50 = fdiv double %45, %49
  %51 = getelementptr inbounds nuw double, ptr %24, i64 %.066
  store double %50, ptr %51, align 8, !tbaa !58
  %52 = add nuw i64 %.066, 1
  %exitcond.not = icmp eq i64 %52, %umax
  br i1 %exitcond.not, label %._crit_edge, label %25, !llvm.loop !146
}